; Function Attrs: mustprogress uwtable
define void @_ZNK7rocksdb7blob_db10BlobDBImpl16GetBlobDBOptionsEv(ptr noalias nonnull sret(%"struct.rocksdb::blob_db::BlobDBOptions") align 8 %agg.result, ptr noundef nonnull align 8 dereferenceable(2448) %this) unnamed_addr #3 align 2 {
entry:
  %bdb_options_ = getelementptr inbounds i8, ptr %this, i64 88
  tail call void @_ZNSt7__cxx1112basic_stringIcSt11char_traitsIcESaIcEEC1ERKS4_(ptr noundef nonnull align 8 dereferenceable(32) %agg.result, ptr noundef nonnull align 8 dereferenceable(32) %bdb_options_)
  %path_relative.i = getelementptr inbounds i8, ptr %agg.result, i64 32
  %path_relative3.i = getelementptr inbounds i8, ptr %this, i64 120
  tail call void @llvm.memcpy.p0.p0.i64(ptr noundef nonnull align 8 dereferenceable(65) %path_relative.i, ptr noundef nonnull align 8 dereferenceable(65) %path_relative3.i, i64 65, i1 false)
  ret void
}